target datalayout = "e-m:e-p270:32:32-p271:32:32-p272:64:64-i64:64-i128:128-f80:128-n8:16:32:64-S128"
target triple = "x86_64-pc-linux-gnu"

%struct.mbedtls_aes_context = type { i32, i64, [68 x i32] }

; Function Attrs: alwaysinline nounwind uwtable
define internal void @mbedtls_put_unaligned_uint64(ptr noundef %0, i64 noundef %1) #8 {
  %3 = alloca ptr, align 8
  %4 = alloca i64, align 8
  store ptr %0, ptr %3, align 8, !tbaa !29
  store i64 %1, ptr %4, align 8, !tbaa !16
  %5 = load ptr, ptr %3, align 8, !tbaa !29
  call void @llvm.memcpy.p0.p0.i64(ptr align 1 %5, ptr align 8 %4, i64 8, i1 false)
  ret void
}

; Function Attrs: alwaysinline nounwind uwtable
define internal i64 @mbedtls_get_unaligned_uint64(ptr noundef %0) #8 {
  %2 = alloca ptr, align 8
  %3 = alloca i64, align 8
  store ptr %0, ptr %2, align 8, !tbaa !29
  call void @llvm.lifetime.start.p0(i64 8, ptr %3) #10
  %4 = load ptr, ptr %2, align 8, !tbaa !29
  call void @llvm.memcpy.p0.p0.i64(ptr align 8 %3, ptr align 1 %4, i64 8, i1 false)
  %5 = load i64, ptr %3, align 8, !tbaa !16
  call void @llvm.lifetime.end.p0(i64 8, ptr %3) #10
  ret i64 %5
}

; Function Attrs: alwaysinline nounwind uwtable
define internal void @mbedtls_xor(ptr noundef %0, ptr noundef %1, ptr noundef %2, i64 noundef %3) #8 {
  %5 = alloca ptr, align 8
  %6 = alloca ptr, align 8
  %7 = alloca ptr, align 8
  %8 = alloca i64, align 8
  %9 = alloca i64, align 8
  %10 = alloca i64, align 8
  store ptr %0, ptr %5, align 8, !tbaa !19
  store ptr %1, ptr %6, align 8, !tbaa !19
  store ptr %2, ptr %7, align 8, !tbaa !19
  store i64 %3, ptr %8, align 8, !tbaa !16
  call void @llvm.lifetime.start.p0(i64 8, ptr %9) #10
  store i64 0, ptr %9, align 8, !tbaa !16
  br label %11

11:                                               ; preds = %30, %4
  %12 = load i64, ptr %9, align 8, !tbaa !16
  %13 = add i64 %12, 8
  %14 = load i64, ptr %8, align 8, !tbaa !16
  %15 = icmp ule i64 %13, %14
  br i1 %15, label %16, label %33

16:                                               ; preds = %11
  call void @llvm.lifetime.start.p0(i64 8, ptr %10) #10
  %17 = load ptr, ptr %6, align 8, !tbaa !19
  %18 = load i64, ptr %9, align 8, !tbaa !16
  %19 = getelementptr inbounds nuw i8, ptr %17, i64 %18
  %20 = call i64 @mbedtls_get_unaligned_uint64(ptr noundef %19)
  %21 = load ptr, ptr %7, align 8, !tbaa !19
  %22 = load i64, ptr %9, align 8, !tbaa !16
  %23 = getelementptr inbounds nuw i8, ptr %21, i64 %22
  %24 = call i64 @mbedtls_get_unaligned_uint64(ptr noundef %23)
  %25 = xor i64 %20, %24
  store i64 %25, ptr %10, align 8, !tbaa !16
  %26 = load ptr, ptr %5, align 8, !tbaa !19
  %27 = load i64, ptr %9, align 8, !tbaa !16
  %28 = getelementptr inbounds nuw i8, ptr %26, i64 %27
  %29 = load i64, ptr %10, align 8, !tbaa !16
  call void @mbedtls_put_unaligned_uint64(ptr noundef %28, i64 noundef %29)
  call void @llvm.lifetime.end.p0(i64 8, ptr %10) #10
  br label %30

30:                                               ; preds = %16
  %31 = load i64, ptr %9, align 8, !tbaa !16
  %32 = add i64 %31, 8
  store i64 %32, ptr %9, align 8, !tbaa !16
  br label %11, !llvm.loop !33

33:                                               ; preds = %11
  br label %34

34:                                               ; preds = %54, %33
  %35 = load i64, ptr %9, align 8, !tbaa !16
  %36 = load i64, ptr %8, align 8, !tbaa !16
  %37 = icmp ult i64 %35, %36
  br i1 %37, label %38, label %57

38:                                               ; preds = %34
  %39 = load ptr, ptr %6, align 8, !tbaa !19
  %40 = load i64, ptr %9, align 8, !tbaa !16
  %41 = getelementptr inbounds nuw i8, ptr %39, i64 %40
  %42 = load i8, ptr %41, align 1, !tbaa !21
  %43 = zext i8 %42 to i32
  %44 = load ptr, ptr %7, align 8, !tbaa !19
  %45 = load i64, ptr %9, align 8, !tbaa !16
  %46 = getelementptr inbounds nuw i8, ptr %44, i64 %45
  %47 = load i8, ptr %46, align 1, !tbaa !21
  %48 = zext i8 %47 to i32
  %49 = xor i32 %43, %48
  %50 = trunc i32 %49 to i8
  %51 = load ptr, ptr %5, align 8, !tbaa !19
  %52 = load i64, ptr %9, align 8, !tbaa !16
  %53 = getelementptr inbounds nuw i8, ptr %51, i64 %52
  store i8 %50, ptr %53, align 1, !tbaa !21
  br label %54

54:                                               ; preds = %38
  %55 = load i64, ptr %9, align 8, !tbaa !16
  %56 = add i64 %55, 1
  store i64 %56, ptr %9, align 8, !tbaa !16
  br label %34, !llvm.loop !34

57:                                               ; preds = %34
  call void @llvm.lifetime.end.p0(i64 8, ptr %9) #10
  ret void
}

; Function Attrs: alwaysinline nounwind uwtable
define internal void @mbedtls_put_unaligned_uint32(ptr noundef %0, i32 noundef %1) #8 {
  %3 = alloca ptr, align 8
  %4 = alloca i32, align 4
  store ptr %0, ptr %3, align 8, !tbaa !29
  store i32 %1, ptr %4, align 4, !tbaa !14
  %5 = load ptr, ptr %3, align 8, !tbaa !29
  call void @llvm.memcpy.p0.p0.i64(ptr align 1 %5, ptr align 4 %4, i64 4, i1 false)
  ret void
}

; Function Attrs: nounwind uwtable
define internal i32 @block_cipher_df(ptr noundef %0, ptr noundef %1, i64 noundef %2) #0 {
  %4 = alloca i32, align 4
  %5 = alloca ptr, align 8
  %6 = alloca ptr, align 8
  %7 = alloca i64, align 8
  %8 = alloca [416 x i8], align 16
  %9 = alloca [48 x i8], align 16
  %10 = alloca [32 x i8], align 16
  %11 = alloca [16 x i8], align 16
  %12 = alloca ptr, align 8
  %13 = alloca ptr, align 8
  %14 = alloca i32, align 4
  %15 = alloca %struct.mbedtls_aes_context, align 8
  %16 = alloca i32, align 4
  %17 = alloca i32, align 4
  %18 = alloca i64, align 8
  %19 = alloca i64, align 8
  %20 = alloca i32, align 4
  store ptr %0, ptr %5, align 8, !tbaa !19
  store ptr %1, ptr %6, align 8, !tbaa !19
  store i64 %2, ptr %7, align 8, !tbaa !16
  call void @llvm.lifetime.start.p0(i64 416, ptr %8) #10
  call void @llvm.lifetime.start.p0(i64 48, ptr %9) #10
  call void @llvm.lifetime.start.p0(i64 32, ptr %10) #10
  call void @llvm.lifetime.start.p0(i64 16, ptr %11) #10
  call void @llvm.lifetime.start.p0(i64 8, ptr %12) #10
  call void @llvm.lifetime.start.p0(i64 8, ptr %13) #10
  call void @llvm.lifetime.start.p0(i64 4, ptr %14) #10
  store i32 0, ptr %14, align 4, !tbaa !14
  call void @llvm.lifetime.start.p0(i64 288, ptr %15) #10
  call void @llvm.lifetime.start.p0(i64 4, ptr %16) #10
  call void @llvm.lifetime.start.p0(i64 4, ptr %17) #10
  call void @llvm.lifetime.start.p0(i64 8, ptr %18) #10
  call void @llvm.lifetime.start.p0(i64 8, ptr %19) #10
  %21 = load i64, ptr %7, align 8, !tbaa !16
  %22 = icmp ugt i64 %21, 384
  br i1 %22, label %23, label %24

23:                                               ; preds = %3
  store i32 -56, ptr %4, align 4
  store i32 1, ptr %20, align 4
  br label %145

24:                                               ; preds = %3
  %25 = getelementptr inbounds [416 x i8], ptr %8, i64 0, i64 0
  call void @llvm.memset.p0.i64(ptr align 16 %25, i8 0, i64 416, i1 false)
  %26 = getelementptr inbounds [416 x i8], ptr %8, i64 0, i64 0
  %27 = getelementptr inbounds i8, ptr %26, i64 16
  store ptr %27, ptr %12, align 8, !tbaa !19
  %28 = load ptr, ptr %12, align 8, !tbaa !19
  %29 = getelementptr inbounds i8, ptr %28, i64 0
  %30 = load i64, ptr %7, align 8, !tbaa !16
  %31 = trunc i64 %30 to i32
  %32 = call i32 @llvm.bswap.i32(i32 %31)
  call void @mbedtls_put_unaligned_uint32(ptr noundef %29, i32 noundef %32)
  %33 = load ptr, ptr %12, align 8, !tbaa !19
  %34 = getelementptr inbounds i8, ptr %33, i64 7
  store ptr %34, ptr %12, align 8, !tbaa !19
  %35 = load ptr, ptr %12, align 8, !tbaa !19
  %36 = getelementptr inbounds nuw i8, ptr %35, i32 1
  store ptr %36, ptr %12, align 8, !tbaa !19
  store i8 48, ptr %35, align 1, !tbaa !21
  %37 = load ptr, ptr %12, align 8, !tbaa !19
  %38 = load ptr, ptr %6, align 8, !tbaa !19
  %39 = load i64, ptr %7, align 8, !tbaa !16
  call void @llvm.memcpy.p0.p0.i64(ptr align 1 %37, ptr align 1 %38, i64 %39, i1 false)
  %40 = load ptr, ptr %12, align 8, !tbaa !19
  %41 = load i64, ptr %7, align 8, !tbaa !16
  %42 = getelementptr inbounds nuw i8, ptr %40, i64 %41
  store i8 -128, ptr %42, align 1, !tbaa !21
  %43 = load i64, ptr %7, align 8, !tbaa !16
  %44 = add i64 24, %43
  %45 = add i64 %44, 1
  store i64 %45, ptr %18, align 8, !tbaa !16
  store i32 0, ptr %16, align 4, !tbaa !14
  br label %46

46:                                               ; preds = %55, %24
  %47 = load i32, ptr %16, align 4, !tbaa !14
  %48 = icmp slt i32 %47, 32
  br i1 %48, label %49, label %58

49:                                               ; preds = %46
  %50 = load i32, ptr %16, align 4, !tbaa !14
  %51 = trunc i32 %50 to i8
  %52 = load i32, ptr %16, align 4, !tbaa !14
  %53 = sext i32 %52 to i64
  %54 = getelementptr inbounds [32 x i8], ptr %10, i64 0, i64 %53
  store i8 %51, ptr %54, align 1, !tbaa !21
  br label %55

55:                                               ; preds = %49
  %56 = load i32, ptr %16, align 4, !tbaa !14
  %57 = add nsw i32 %56, 1
  store i32 %57, ptr %16, align 4, !tbaa !14
  br label %46, !llvm.loop !22

58:                                               ; preds = %46
  call void @mbedtls_aes_init(ptr noundef %15)
  %59 = getelementptr inbounds [32 x i8], ptr %10, i64 0, i64 0
  %60 = call i32 @mbedtls_aes_setkey_enc(ptr noundef %15, ptr noundef %59, i32 noundef 256)
  store i32 %60, ptr %14, align 4, !tbaa !14
  %61 = icmp ne i32 %60, 0
  br i1 %61, label %62, label %63

62:                                               ; preds = %58
  br label %134

63:                                               ; preds = %58
  store i32 0, ptr %17, align 4, !tbaa !14
  br label %64

64:                                               ; preds = %104, %63
  %65 = load i32, ptr %17, align 4, !tbaa !14
  %66 = icmp slt i32 %65, 48
  br i1 %66, label %67, label %107

67:                                               ; preds = %64
  %68 = getelementptr inbounds [416 x i8], ptr %8, i64 0, i64 0
  store ptr %68, ptr %12, align 8, !tbaa !19
  %69 = getelementptr inbounds [16 x i8], ptr %11, i64 0, i64 0
  call void @llvm.memset.p0.i64(ptr align 16 %69, i8 0, i64 16, i1 false)
  %70 = load i64, ptr %18, align 8, !tbaa !16
  store i64 %70, ptr %19, align 8, !tbaa !16
  br label %71

71:                                               ; preds = %94, %67
  %72 = load i64, ptr %19, align 8, !tbaa !16
  %73 = icmp ugt i64 %72, 0
  br i1 %73, label %74, label %95

74:                                               ; preds = %71
  %75 = getelementptr inbounds [16 x i8], ptr %11, i64 0, i64 0
  %76 = getelementptr inbounds [16 x i8], ptr %11, i64 0, i64 0
  %77 = load ptr, ptr %12, align 8, !tbaa !19
  call void @mbedtls_xor(ptr noundef %75, ptr noundef %76, ptr noundef %77, i64 noundef 16)
  %78 = load ptr, ptr %12, align 8, !tbaa !19
  %79 = getelementptr inbounds i8, ptr %78, i64 16
  store ptr %79, ptr %12, align 8, !tbaa !19
  %80 = load i64, ptr %19, align 8, !tbaa !16
  %81 = icmp uge i64 %80, 16
  br i1 %81, label %82, label %83

82:                                               ; preds = %74
  br label %85

83:                                               ; preds = %74
  %84 = load i64, ptr %19, align 8, !tbaa !16
  br label %85

85:                                               ; preds = %83, %82
  %86 = phi i64 [ 16, %82 ], [ %84, %83 ]
  %87 = load i64, ptr %19, align 8, !tbaa !16
  %88 = sub i64 %87, %86
  store i64 %88, ptr %19, align 8, !tbaa !16
  %89 = getelementptr inbounds [16 x i8], ptr %11, i64 0, i64 0
  %90 = getelementptr inbounds [16 x i8], ptr %11, i64 0, i64 0
  %91 = call i32 @mbedtls_aes_crypt_ecb(ptr noundef %15, i32 noundef 1, ptr noundef %89, ptr noundef %90)
  store i32 %91, ptr %14, align 4, !tbaa !14
  %92 = icmp ne i32 %91, 0
  br i1 %92, label %93, label %94

93:                                               ; preds = %85
  br label %134

94:                                               ; preds = %85
  br label %71, !llvm.loop !24

95:                                               ; preds = %71
  %96 = getelementptr inbounds [48 x i8], ptr %9, i64 0, i64 0
  %97 = load i32, ptr %17, align 4, !tbaa !14
  %98 = sext i32 %97 to i64
  %99 = getelementptr inbounds i8, ptr %96, i64 %98
  %100 = getelementptr inbounds [16 x i8], ptr %11, i64 0, i64 0
  call void @llvm.memcpy.p0.p0.i64(ptr align 1 %99, ptr align 16 %100, i64 16, i1 false)
  %101 = getelementptr inbounds [416 x i8], ptr %8, i64 0, i64 3
  %102 = load i8, ptr %101, align 1, !tbaa !21
  %103 = add i8 %102, 1
  store i8 %103, ptr %101, align 1, !tbaa !21
  br label %104

104:                                              ; preds = %95
  %105 = load i32, ptr %17, align 4, !tbaa !14
  %106 = add nsw i32 %105, 16
  store i32 %106, ptr %17, align 4, !tbaa !14
  br label %64, !llvm.loop !25

107:                                              ; preds = %64
  %108 = getelementptr inbounds [48 x i8], ptr %9, i64 0, i64 0
  %109 = call i32 @mbedtls_aes_setkey_enc(ptr noundef %15, ptr noundef %108, i32 noundef 256)
  store i32 %109, ptr %14, align 4, !tbaa !14
  %110 = icmp ne i32 %109, 0
  br i1 %110, label %111, label %112

111:                                              ; preds = %107
  br label %134

112:                                              ; preds = %107
  %113 = getelementptr inbounds [48 x i8], ptr %9, i64 0, i64 0
  %114 = getelementptr inbounds i8, ptr %113, i64 32
  store ptr %114, ptr %13, align 8, !tbaa !19
  %115 = load ptr, ptr %5, align 8, !tbaa !19
  store ptr %115, ptr %12, align 8, !tbaa !19
  store i32 0, ptr %17, align 4, !tbaa !14
  br label %116

116:                                              ; preds = %130, %112
  %117 = load i32, ptr %17, align 4, !tbaa !14
  %118 = icmp slt i32 %117, 48
  br i1 %118, label %119, label %133

119:                                              ; preds = %116
  %120 = load ptr, ptr %13, align 8, !tbaa !19
  %121 = load ptr, ptr %13, align 8, !tbaa !19
  %122 = call i32 @mbedtls_aes_crypt_ecb(ptr noundef %15, i32 noundef 1, ptr noundef %120, ptr noundef %121)
  store i32 %122, ptr %14, align 4, !tbaa !14
  %123 = icmp ne i32 %122, 0
  br i1 %123, label %124, label %125

124:                                              ; preds = %119
  br label %134

125:                                              ; preds = %119
  %126 = load ptr, ptr %12, align 8, !tbaa !19
  %127 = load ptr, ptr %13, align 8, !tbaa !19
  call void @llvm.memcpy.p0.p0.i64(ptr align 1 %126, ptr align 1 %127, i64 16, i1 false)
  %128 = load ptr, ptr %12, align 8, !tbaa !19
  %129 = getelementptr inbounds i8, ptr %128, i64 16
  store ptr %129, ptr %12, align 8, !tbaa !19
  br label %130

130:                                              ; preds = %125
  %131 = load i32, ptr %17, align 4, !tbaa !14
  %132 = add nsw i32 %131, 16
  store i32 %132, ptr %17, align 4, !tbaa !14
  br label %116, !llvm.loop !26

133:                                              ; preds = %116
  br label %134

134:                                              ; preds = %133, %124, %111, %93, %62
  call void @mbedtls_aes_free(ptr noundef %15)
  %135 = getelementptr inbounds [416 x i8], ptr %8, i64 0, i64 0
  call void @mbedtls_platform_zeroize(ptr noundef %135, i64 noundef 416)
  %136 = getelementptr inbounds [48 x i8], ptr %9, i64 0, i64 0
  call void @mbedtls_platform_zeroize(ptr noundef %136, i64 noundef 48)
  %137 = getelementptr inbounds [32 x i8], ptr %10, i64 0, i64 0
  call void @mbedtls_platform_zeroize(ptr noundef %137, i64 noundef 32)
  %138 = getelementptr inbounds [16 x i8], ptr %11, i64 0, i64 0
  call void @mbedtls_platform_zeroize(ptr noundef %138, i64 noundef 16)
  %139 = load i32, ptr %14, align 4, !tbaa !14
  %140 = icmp ne i32 0, %139
  br i1 %140, label %141, label %143

141:                                              ; preds = %134
  %142 = load ptr, ptr %5, align 8, !tbaa !19
  call void @mbedtls_platform_zeroize(ptr noundef %142, i64 noundef 48)
  br label %143

143:                                              ; preds = %141, %134
  %144 = load i32, ptr %14, align 4, !tbaa !14
  store i32 %144, ptr %4, align 4
  store i32 1, ptr %20, align 4
  br label %145

145:                                              ; preds = %143, %23
  call void @llvm.lifetime.end.p0(i64 8, ptr %19) #10
  call void @llvm.lifetime.end.p0(i64 8, ptr %18) #10
  call void @llvm.lifetime.end.p0(i64 4, ptr %17) #10
  call void @llvm.lifetime.end.p0(i64 4, ptr %16) #10
  call void @llvm.lifetime.end.p0(i64 288, ptr %15) #10
  call void @llvm.lifetime.end.p0(i64 4, ptr %14) #10
  call void @llvm.lifetime.end.p0(i64 8, ptr %13) #10
  call void @llvm.lifetime.end.p0(i64 8, ptr %12) #10
  call void @llvm.lifetime.end.p0(i64 16, ptr %11) #10
  call void @llvm.lifetime.end.p0(i64 32, ptr %10) #10
  call void @llvm.lifetime.end.p0(i64 48, ptr %9) #10
  call void @llvm.lifetime.end.p0(i64 416, ptr %8) #10
  %146 = load i32, ptr %4, align 4
  ret i32 %146
}