; Function Attrs: nounwind uwtable
define internal fastcc i32 @block_cipher_df(ptr noundef nonnull %0, ptr noundef readonly captures(none) %1, i64 noundef %2) unnamed_addr #0 {
  %4 = alloca [416 x i8], align 16
  %5 = alloca [48 x i8], align 16
  %6 = alloca [32 x i8], align 16
  %7 = alloca [16 x i8], align 16
  %8 = alloca %struct.mbedtls_aes_context, align 8
  call void @llvm.lifetime.start.p0(i64 416, ptr nonnull %4) #14
  call void @llvm.lifetime.start.p0(i64 48, ptr nonnull %5) #14
  call void @llvm.lifetime.start.p0(i64 32, ptr nonnull %6) #14
  call void @llvm.lifetime.start.p0(i64 16, ptr nonnull %7) #14
  call void @llvm.lifetime.start.p0(i64 288, ptr nonnull %8) #14
  %9 = icmp ugt i64 %2, 384
  br i1 %9, label %49, label %10

10:                                               ; preds = %3
  call void @llvm.memset.p0.i64(ptr noundef nonnull align 16 dereferenceable(416) %4, i8 0, i64 416, i1 false)
  %11 = getelementptr inbounds nuw i8, ptr %4, i64 16
  %12 = trunc nuw nsw i64 %2 to i32
  %13 = tail call i32 @llvm.bswap.i32(i32 %12)
  store i32 %13, ptr %11, align 16
  %14 = getelementptr inbounds nuw i8, ptr %4, i64 23
  %15 = getelementptr inbounds nuw i8, ptr %4, i64 24
  store i8 48, ptr %14, align 1, !tbaa !18
  call void @llvm.memcpy.p0.p0.i64(ptr nonnull align 8 %15, ptr align 1 %1, i64 %2, i1 false)
  %16 = getelementptr inbounds nuw i8, ptr %15, i64 %2
  store i8 -128, ptr %16, align 1, !tbaa !18
  br label %17

17:                                               ; preds = %10, %17
  %indvars.iv = phi i64 [ 0, %10 ], [ %indvars.iv.next, %17 ]
  %18 = trunc i64 %indvars.iv to i8
  %19 = getelementptr inbounds nuw [32 x i8], ptr %6, i64 0, i64 %indvars.iv
  store i8 %18, ptr %19, align 1, !tbaa !18
  %indvars.iv.next = add nuw nsw i64 %indvars.iv, 1
  %exitcond.not = icmp eq i64 %indvars.iv.next, 32
  br i1 %exitcond.not, label %20, label %17, !llvm.loop !19

20:                                               ; preds = %17
  %21 = add nuw nsw i64 %2, 25
  call void @mbedtls_aes_init(ptr noundef nonnull %8) #14
  %22 = call i32 @mbedtls_aes_setkey_enc(ptr noundef nonnull %8, ptr noundef nonnull %6, i32 noundef 256) #14
  %.not = icmp eq i32 %22, 0
  br i1 %.not, label %.preheader58, label %.loopexit

.preheader58:                                     ; preds = %20
  %23 = getelementptr inbounds nuw i8, ptr %4, i64 3
  %24 = getelementptr inbounds nuw i8, ptr %7, i64 8
  br label %25

25:                                               ; preds = %.preheader58, %34
  %26 = phi i8 [ 0, %.preheader58 ], [ %36, %34 ]
  %indvars.iv67 = phi i64 [ 0, %.preheader58 ], [ %indvars.iv.next68, %34 ]
  call void @llvm.memset.p0.i64(ptr noundef nonnull align 16 dereferenceable(16) %7, i8 0, i64 16, i1 false)
  br label %27

27:                                               ; preds = %.preheader56, %25
  %.041 = phi ptr [ %4, %25 ], [ %31, %.preheader56 ]
  %.0 = phi i64 [ %21, %25 ], [ %32, %.preheader56 ]
  %.not52 = icmp eq i64 %.0, 0
  br i1 %.not52, label %34, label %.preheader56

.preheader56:                                     ; preds = %27
  %.0.copyload.i55 = load i64, ptr %7, align 16
  %.0.copyload.i = load i64, ptr %.041, align 1
  %28 = xor i64 %.0.copyload.i, %.0.copyload.i55
  store i64 %28, ptr %7, align 16
  %.0.copyload.i55.c = load i64, ptr %24, align 8
  %29 = getelementptr inbounds nuw i8, ptr %.041, i64 8
  %.0.copyload.i.c = load i64, ptr %29, align 1
  %30 = xor i64 %.0.copyload.i.c, %.0.copyload.i55.c
  store i64 %30, ptr %24, align 8
  %31 = getelementptr inbounds nuw i8, ptr %.041, i64 16
  %32 = call i64 @llvm.usub.sat.i64(i64 %.0, i64 16)
  %33 = call i32 @mbedtls_aes_crypt_ecb(ptr noundef nonnull %8, i32 noundef 1, ptr noundef nonnull %7, ptr noundef nonnull %7) #14
  %.not53 = icmp eq i32 %33, 0
  br i1 %.not53, label %27, label %.loopexit, !llvm.loop !20

34:                                               ; preds = %27
  %35 = getelementptr inbounds nuw i8, ptr %5, i64 %indvars.iv67
  call void @llvm.memcpy.p0.p0.i64(ptr noundef nonnull align 16 dereferenceable(16) %35, ptr noundef nonnull align 16 dereferenceable(16) %7, i64 16, i1 false)
  %36 = add i8 %26, 1
  store i8 %36, ptr %23, align 1, !tbaa !18
  %indvars.iv.next68 = add nuw nsw i64 %indvars.iv67, 16
  %37 = icmp samesign ult i64 %indvars.iv67, 32
  br i1 %37, label %25, label %38, !llvm.loop !21

38:                                               ; preds = %34
  %39 = call i32 @mbedtls_aes_setkey_enc(ptr noundef nonnull %8, ptr noundef nonnull %5, i32 noundef 256) #14
  %.not50 = icmp eq i32 %39, 0
  br i1 %.not50, label %40, label %.loopexit

40:                                               ; preds = %38
  %41 = getelementptr inbounds nuw i8, ptr %5, i64 32
  br label %42

42:                                               ; preds = %40, %44
  %.164 = phi i32 [ 0, %40 ], [ %46, %44 ]
  %.14263 = phi ptr [ %0, %40 ], [ %45, %44 ]
  %43 = call i32 @mbedtls_aes_crypt_ecb(ptr noundef nonnull %8, i32 noundef 1, ptr noundef nonnull %41, ptr noundef nonnull %41) #14
  %.not51 = icmp eq i32 %43, 0
  br i1 %.not51, label %44, label %.loopexit

44:                                               ; preds = %42
  call void @llvm.memcpy.p0.p0.i64(ptr noundef nonnull align 1 dereferenceable(16) %.14263, ptr noundef nonnull align 16 dereferenceable(16) %41, i64 16, i1 false)
  %45 = getelementptr inbounds nuw i8, ptr %.14263, i64 16
  %46 = add nuw nsw i32 %.164, 16
  %47 = icmp samesign ult i32 %.164, 32
  br i1 %47, label %42, label %.loopexit, !llvm.loop !22

.loopexit:                                        ; preds = %.preheader56, %44, %42, %38, %20
  %.039 = phi i32 [ %22, %20 ], [ %39, %38 ], [ 0, %44 ], [ %43, %42 ], [ %33, %.preheader56 ]
  call void @mbedtls_aes_free(ptr noundef nonnull %8) #14
  call void @mbedtls_platform_zeroize(ptr noundef nonnull %4, i64 noundef 416) #14
  call void @mbedtls_platform_zeroize(ptr noundef nonnull %5, i64 noundef 48) #14
  call void @mbedtls_platform_zeroize(ptr noundef nonnull %6, i64 noundef 32) #14
  call void @mbedtls_platform_zeroize(ptr noundef nonnull %7, i64 noundef 16) #14
  %.not54 = icmp eq i32 %.039, 0
  br i1 %.not54, label %49, label %48

48:                                               ; preds = %.loopexit
  call void @mbedtls_platform_zeroize(ptr noundef nonnull %0, i64 noundef 48) #14
  br label %49

49:                                               ; preds = %.loopexit, %48, %3
  %.036 = phi i32 [ -56, %3 ], [ %.039, %48 ], [ 0, %.loopexit ]
  call void @llvm.lifetime.end.p0(i64 288, ptr nonnull %8) #14
  call void @llvm.lifetime.end.p0(i64 16, ptr nonnull %7) #14
  call void @llvm.lifetime.end.p0(i64 32, ptr nonnull %6) #14
  call void @llvm.lifetime.end.p0(i64 48, ptr nonnull %5) #14
  call void @llvm.lifetime.end.p0(i64 416, ptr nonnull %4) #14
  ret i32 %.036
}